(lp0
(iunit
Unit
p1
(dp2
S'init'
p3
I15
sS'tag'
p4
S'a'
p5
sS'name'
p6
S'Stroud'
p7
sS'init_mod'
p8
I3
sba(iunit
Unit
p9
(dp10
g3
I3
sg4
S'e'
p11
sg6
S'Skeleton 1'
p12
sg8
I-2
sba(iunit
Unit
p13
(dp14
g3
I20
sg4
g11
sg6
S'Skeleton 2'
p15
sg8
I-2
sba.