(lp0
(iunit
Unit
p1
(dp2
S'init'
p3
I16
sS'name'
p4
S'Skeleton 1'
p5
sS'init_mod'
p6
I-2
sba(iunit
Unit
p7
(dp8
g3
I1
sg4
S'Bone Golem'
p9
sg6
I-6
sba(iunit
Unit
p10
(dp11
g3
I15
sg4
S'Stroud'
p12
sg6
I3
sba(iunit
Unit
p13
(dp14
g3
I18
sg4
S'Skeleton 2'
p15
sg6
I-2
sba(iunit
Unit
p16
(dp17
g3
I12
sg4
S'Raziel'
p18
sg6
I2
sba.